ccopy_reg
_reconstructor
p0
(csklearn.linear_model.base
LinearRegression
p1
c__builtin__
object
p2
Ntp3
Rp4
(dp5
S'normalize'
p6
I00
sS'n_jobs'
p7
I1
sS'rank_'
p8
I4
sS'fit_intercept'
p9
I01
sS'_residues'
p10
cnumpy.core.multiarray
scalar
p11
(cnumpy
dtype
p12
(S'f8'
p13
I0
I1
tp14
Rp15
(I3
S'<'
p16
NNNI-1
I-1
I0
tp17
bS'\x8a\xfb\x86iO\xbbLA'
p18
tp19
Rp20
sS'coef_'
p21
cnumpy.core.multiarray
_reconstruct
p22
(cnumpy
ndarray
p23
(I0
tp24
S'b'
p25
tp26
Rp27
(I1
(L4L
tp28
g15
I00
S'\xa8C\xbbFN\x80n@\x03-\x08--g\xf8\xbf\xed\x16\x83\x9b\xbc{\xda?\x06\x91\x88\x8a\x86_\x01\xc0'
p29
tp30
bsS'_sklearn_version'
p31
S'0.19.1'
p32
sS'copy_X'
p33
I01
sS'intercept_'
p34
g11
(g15
S'\xbe\xf8\xdc\x1a\x17Yy@'
p35
tp36
Rp37
sS'singular_'
p38
g22
(g23
(I0
tp39
g25
tp40
Rp41
(I1
(L4L
tp42
g15
I00
S'\xfb\x06\x87)\x0b\x18R@\xf3\x7f\x92\xd3\x7f\x17J@\xad\xdc\xda\xc1\x9d\xfdD@6\x91\x97y\x1f\xf6=@'
p43
tp44
bsb.